target datalayout = "e-m:e-p270:32:32-p271:32:32-p272:64:64-i64:64-i128:128-f80:128-n8:16:32:64-S128"
target triple = "x86_64-pc-linux-gnu"

%struct.__va_list_tag = type { i32, i32, ptr, ptr }
%struct.CRestriction = type { i32, i32, %union.anon.1 }
%union.anon.1 = type { ptr }
%struct.CNodeRestriction = type { i32, ptr }

@hf_mswsp_cnoderestrict_cnode = internal global i32 0, align 4
@ett_CNodeRestriction = internal global i32 0, align 4
@.str.1285 = private unnamed_addr constant [11 x i8] c"paNode[%u]\00", align 1
@.str.1286 = private unnamed_addr constant [19 x i8] c"padding_paNode[%u]\00", align 1

; Function Attrs: alwaysinline nounwind
define internal ptr @memset.inline(ptr %0, i32 %1, i64 %2) #8 {
  %4 = alloca ptr, align 8
  %5 = alloca i32, align 4
  %6 = alloca i64, align 8
  store ptr %0, ptr %4, align 8
  store i32 %1, ptr %5, align 4
  store i64 %2, ptr %6, align 8
  %7 = load ptr, ptr %4, align 8
  %8 = load i32, ptr %5, align 4
  %9 = load i64, ptr %6, align 8
  %10 = load ptr, ptr %4, align 8
  %11 = call i64 @llvm.objectsize.i64.p0(ptr %10, i1 false, i1 true, i1 true)
  %12 = call ptr @__memset_chk(ptr noundef %7, i32 noundef %8, i64 noundef %9, i64 noundef %11) #11
  ret ptr %12
}

; Function Attrs: null_pointer_is_valid sspstrong uwtable
define internal i32 @parse_CNodeRestriction(ptr noundef %0, ptr noundef %1, i32 noundef %2, ptr noundef %3, ptr noundef %4, ptr noundef %5, ptr noundef %6, ...) #0 {
  %8 = alloca ptr, align 8
  %9 = alloca ptr, align 8
  %10 = alloca i32, align 4
  %11 = alloca ptr, align 8
  %12 = alloca ptr, align 8
  %13 = alloca ptr, align 8
  %14 = alloca ptr, align 8
  %15 = alloca ptr, align 8
  %16 = alloca ptr, align 8
  %17 = alloca i32, align 4
  %18 = alloca ptr, align 8
  %19 = alloca [1 x %struct.__va_list_tag], align 16
  %20 = alloca %struct.CRestriction, align 8
  store ptr %0, ptr %8, align 8
  store ptr %1, ptr %9, align 8
  store i32 %2, ptr %10, align 4
  store ptr %3, ptr %11, align 8
  store ptr %4, ptr %12, align 8
  store ptr %5, ptr %13, align 8
  store ptr %6, ptr %14, align 8
  call void @llvm.lifetime.start.p0(i64 8, ptr %15) #11
  call void @llvm.lifetime.start.p0(i64 8, ptr %16) #11
  call void @llvm.lifetime.start.p0(i64 4, ptr %17) #11
  call void @llvm.lifetime.start.p0(i64 8, ptr %18) #11
  call void @llvm.lifetime.start.p0(i64 24, ptr %19) #11
  %21 = getelementptr inbounds [1 x %struct.__va_list_tag], ptr %19, i64 0, i64 0
  call void @llvm.va_start.p0(ptr %21)
  %22 = call ptr @wmem_packet_scope()
  %23 = load ptr, ptr %14, align 8
  %24 = getelementptr inbounds [1 x %struct.__va_list_tag], ptr %19, i64 0, i64 0
  %25 = call noalias ptr @wmem_strdup_vprintf(ptr noundef %22, ptr noundef %23, ptr noundef %24)
  store ptr %25, ptr %18, align 8
  %26 = getelementptr inbounds [1 x %struct.__va_list_tag], ptr %19, i64 0, i64 0
  call void @llvm.va_end.p0(ptr %26)
  %27 = load ptr, ptr %11, align 8
  %28 = load ptr, ptr %8, align 8
  %29 = load i32, ptr %10, align 4
  %30 = load i32, ptr @ett_CNodeRestriction, align 4
  %31 = load ptr, ptr %18, align 8
  %32 = call ptr @proto_tree_add_subtree(ptr noundef %27, ptr noundef %28, i32 noundef %29, i32 noundef 0, i32 noundef %30, ptr noundef %16, ptr noundef %31)
  store ptr %32, ptr %15, align 8
  %33 = load ptr, ptr %8, align 8
  %34 = load i32, ptr %10, align 4
  %35 = call i32 @tvb_get_letohl(ptr noundef %33, i32 noundef %34)
  %36 = load ptr, ptr %13, align 8
  %37 = getelementptr inbounds nuw %struct.CNodeRestriction, ptr %36, i32 0, i32 0
  store i32 %35, ptr %37, align 8
  %38 = load ptr, ptr %15, align 8
  %39 = load i32, ptr @hf_mswsp_cnoderestrict_cnode, align 4
  %40 = load ptr, ptr %8, align 8
  %41 = load i32, ptr %10, align 4
  %42 = load ptr, ptr %13, align 8
  %43 = getelementptr inbounds nuw %struct.CNodeRestriction, ptr %42, i32 0, i32 0
  %44 = load i32, ptr %43, align 8
  %45 = call ptr @proto_tree_add_uint(ptr noundef %38, i32 noundef %39, ptr noundef %40, i32 noundef %41, i32 noundef 4, i32 noundef %44)
  %46 = load i32, ptr %10, align 4
  %47 = add i32 %46, 4
  store i32 %47, ptr %10, align 4
  store i32 0, ptr %17, align 4
  br label %48

48:                                               ; preds = %68, %7
  %49 = load i32, ptr %17, align 4
  %50 = load ptr, ptr %13, align 8
  %51 = getelementptr inbounds nuw %struct.CNodeRestriction, ptr %50, i32 0, i32 0
  %52 = load i32, ptr %51, align 8
  %53 = icmp ult i32 %49, %52
  br i1 %53, label %54, label %71

54:                                               ; preds = %48
  call void @llvm.lifetime.start.p0(i64 16, ptr %20) #11
  %55 = call ptr @memset.inline(ptr noundef %20, i32 noundef 0, i64 noundef 16) #11
  %56 = load ptr, ptr %8, align 8
  %57 = load ptr, ptr %9, align 8
  %58 = load i32, ptr %10, align 4
  %59 = load ptr, ptr %15, align 8
  %60 = load ptr, ptr %12, align 8
  %61 = load i32, ptr %17, align 4
  %62 = call i32 (ptr, ptr, i32, ptr, ptr, ptr, ptr, ...) @parse_CRestriction(ptr noundef %56, ptr noundef %57, i32 noundef %58, ptr noundef %59, ptr noundef %60, ptr noundef %20, ptr noundef @.str.1285, i32 noundef %61)
  store i32 %62, ptr %10, align 4
  %63 = load ptr, ptr %8, align 8
  %64 = load i32, ptr %10, align 4
  %65 = load ptr, ptr %15, align 8
  %66 = load i32, ptr %17, align 4
  %67 = call i32 (ptr, i32, i32, ptr, ptr, ...) @parse_padding(ptr noundef %63, i32 noundef %64, i32 noundef 4, ptr noundef %65, ptr noundef @.str.1286, i32 noundef %66)
  store i32 %67, ptr %10, align 4
  call void @llvm.lifetime.end.p0(i64 16, ptr %20) #11
  br label %68

68:                                               ; preds = %54
  %69 = load i32, ptr %17, align 4
  %70 = add i32 %69, 1
  store i32 %70, ptr %17, align 4
  br label %48, !llvm.loop !25

71:                                               ; preds = %48
  %72 = load ptr, ptr %16, align 8
  %73 = load ptr, ptr %8, align 8
  %74 = load i32, ptr %10, align 4
  call void @proto_item_set_end(ptr noundef %72, ptr noundef %73, i32 noundef %74)
  %75 = load i32, ptr %10, align 4
  call void @llvm.lifetime.end.p0(i64 24, ptr %19) #11
  call void @llvm.lifetime.end.p0(i64 8, ptr %18) #11
  call void @llvm.lifetime.end.p0(i64 4, ptr %17) #11
  call void @llvm.lifetime.end.p0(i64 8, ptr %16) #11
  call void @llvm.lifetime.end.p0(i64 8, ptr %15) #11
  ret i32 %75
}