; Function Attrs: null_pointer_is_valid sspstrong uwtable
define internal noundef i32 @parse_CNodeRestriction(ptr noundef %0, ptr noundef %1, i32 noundef %2, ptr noundef %3, ptr noundef %4, ptr noundef captures(none) initializes((0, 4)) %5, ptr readnone captures(none) %6, ...) unnamed_addr #0 {
  %8 = alloca ptr, align 8
  %9 = alloca [1 x %struct.__va_list_tag], align 16
  %10 = alloca %struct.CRestriction, align 8
  call void @llvm.lifetime.start.p0(i64 8, ptr nonnull %8) #11
  call void @llvm.lifetime.start.p0(i64 24, ptr nonnull %9) #11
  call void @llvm.va_start.p0(ptr nonnull %9)
  %11 = call ptr @wmem_packet_scope()
  %12 = call noalias ptr @wmem_strdup_vprintf(ptr noundef %11, ptr noundef nonnull @.str.1256, ptr noundef nonnull %9)
  call void @llvm.va_end.p0(ptr nonnull %9)
  %13 = load i32, ptr @ett_CNodeRestriction, align 4
  %14 = call ptr @proto_tree_add_subtree(ptr noundef %3, ptr noundef %0, i32 noundef %2, i32 noundef 0, i32 noundef %13, ptr noundef nonnull %8, ptr noundef %12)
  %15 = call i32 @tvb_get_letohl(ptr noundef %0, i32 noundef %2)
  store i32 %15, ptr %5, align 8
  %16 = load i32, ptr @hf_mswsp_cnoderestrict_cnode, align 4
  %17 = call ptr @proto_tree_add_uint(ptr noundef %14, i32 noundef %16, ptr noundef %0, i32 noundef %2, i32 noundef 4, i32 noundef %15)
  %18 = add i32 %2, 4
  %19 = load i32, ptr %5, align 8
  %.not = icmp eq i32 %19, 0
  br i1 %.not, label %._crit_edge, label %.lr.ph

.lr.ph:                                           ; preds = %7, %.lr.ph
  %.030 = phi i32 [ %21, %.lr.ph ], [ %18, %7 ]
  %.02829 = phi i32 [ %22, %.lr.ph ], [ 0, %7 ]
  call void @llvm.lifetime.start.p0(i64 16, ptr nonnull %10) #11
  call void @llvm.memset.p0.i64(ptr noundef nonnull align 8 dereferenceable(16) %10, i8 noundef 0, i64 noundef 16, i1 noundef false) #11
  %20 = call i32 (ptr, ptr, i32, ptr, ptr, ptr, ptr, ...) @parse_CRestriction(ptr noundef %0, ptr noundef %1, i32 noundef %.030, ptr noundef %14, ptr noundef %4, ptr noundef nonnull %10, ptr noundef nonnull @.str.1285, i32 noundef %.02829)
  %21 = call i32 (ptr, i32, i32, ptr, ptr, ...) @parse_padding(ptr noundef %0, i32 noundef %20, i32 noundef 4, ptr noundef %14, ptr noundef nonnull @.str.1286, i32 noundef %.02829)
  call void @llvm.lifetime.end.p0(i64 16, ptr nonnull %10) #11
  %22 = add nuw i32 %.02829, 1
  %23 = load i32, ptr %5, align 8
  %24 = icmp ult i32 %22, %23
  br i1 %24, label %.lr.ph, label %._crit_edge, !llvm.loop !26

._crit_edge:                                      ; preds = %.lr.ph, %7
  %.0.lcssa = phi i32 [ %18, %7 ], [ %21, %.lr.ph ]
  %25 = load ptr, ptr %8, align 8
  call void @proto_item_set_end(ptr noundef %25, ptr noundef %0, i32 noundef %.0.lcssa)
  call void @llvm.lifetime.end.p0(i64 24, ptr nonnull %9) #11
  call void @llvm.lifetime.end.p0(i64 8, ptr nonnull %8) #11
  ret i32 %.0.lcssa
}